(dp1
S'twisted_reactors'
p2
ccopy_reg
_reconstructor
p3
(ctwisted.plugin
CachedDropin
p4
c__builtin__
object
p5
NtRp6
(dp7
S'moduleName'
p8
S'twisted.plugins.twisted_reactors'
p9
sS'description'
p10
NsS'plugins'
p11
(lp12
g3
(ctwisted.plugin
CachedPlugin
p13
g5
NtRp14
(dp15
S'provided'
p16
(lp17
ctwisted.plugin
IPlugin
p18
actwisted.application.reactors
IReactorInstaller
p19
asS'dropin'
p20
g6
sS'name'
p21
S'glade'
p22
sg10
S'\n    @ivar moduleName: The fully-qualified Python name of the module of which\n    the install callable is an attribute.\n    '
p23
sbag3
(g13
g5
NtRp24
(dp25
g16
(lp26
g18
ag19
asg20
g6
sg21
S'win32er'
p27
sg10
g23
sbag3
(g13
g5
NtRp28
(dp29
g16
(lp30
g18
ag19
asg20
g6
sg21
S'glib2'
p31
sg10
g23
sbag3
(g13
g5
NtRp32
(dp33
g16
(lp34
g18
ag19
asg20
g6
sg21
S'kqueue'
p35
sg10
g23
sbag3
(g13
g5
NtRp36
(dp37
g16
(lp38
g18
ag19
asg20
g6
sg21
S'epoll'
p39
sg10
g23
sbag3
(g13
g5
NtRp40
(dp41
g16
(lp42
g18
ag19
asg20
g6
sg21
S'iocp'
p43
sg10
g23
sbag3
(g13
g5
NtRp44
(dp45
g16
(lp46
g18
ag19
asg20
g6
sg21
S'gtk'
p47
sg10
g23
sbag3
(g13
g5
NtRp48
(dp49
g16
(lp50
g18
ag19
asg20
g6
sg21
S'cf'
p51
sg10
g23
sbag3
(g13
g5
NtRp52
(dp53
g16
(lp54
g18
ag19
asg20
g6
sg21
S'gtk2'
p55
sg10
g23
sbag3
(g13
g5
NtRp56
(dp57
g16
(lp58
g18
ag19
asg20
g6
sg21
S'default'
p59
sg10
g23
sbag3
(g13
g5
NtRp60
(dp61
g16
(lp62
g18
ag19
asg20
g6
sg21
S'gi'
p63
sg10
g23
sbag3
(g13
g5
NtRp64
(dp65
g16
(lp66
g18
ag19
asg20
g6
sg21
S'poll'
p67
sg10
g23
sbag3
(g13
g5
NtRp68
(dp69
g16
(lp70
g18
ag19
asg20
g6
sg21
S'gtk3'
p71
sg10
g23
sbag3
(g13
g5
NtRp72
(dp73
g16
(lp74
g18
ag19
asg20
g6
sg21
S'select'
p75
sg10
g23
sbag3
(g13
g5
NtRp76
(dp77
g16
(lp78
g18
ag19
asg20
g6
sg21
S'wx'
p79
sg10
g23
sbasbsS'cred_memory'
p80
g3
(g4
g5
NtRp81
(dp82
g8
S'twisted.plugins.cred_memory'
p83
sg10
S'\nCred plugin for an in-memory user database.\n'
p84
sg11
(lp85
g3
(g13
g5
NtRp86
(dp87
g16
(lp88
ctwisted.cred.strcred
ICheckerFactory
p89
ag18
asg20
g81
sg21
S'theInMemoryCheckerFactory'
p90
sg10
S"\n    A factory for in-memory credentials checkers.\n\n    This is only of use in one-off test programs or examples which don't\n    want to focus too much on how credentials are verified.\n\n    You really don't want to use this for anything else.  It is, at best, a\n    toy.  If you need a simple credentials checker for a real application,\n    see L{cred_passwd.PasswdCheckerFactory}.\n    "
p91
sbasbsS'twisted_web'
p92
g3
(g4
g5
NtRp93
(dp94
g8
S'twisted.plugins.twisted_web'
p95
sg10
Nsg11
(lp96
g3
(g13
g5
NtRp97
(dp98
g16
(lp99
g18
actwisted.application.service
IServiceMaker
p100
asg20
g93
sg21
S'TwistedWeb'
p101
sg10
S'\n    Utility class to simplify the definition of L{IServiceMaker} plugins.\n    '
p102
sbasbsS'twisted_inet'
p103
g3
(g4
g5
NtRp104
(dp105
g8
S'twisted.plugins.twisted_inet'
p106
sg10
Nsg11
(lp107
g3
(g13
g5
NtRp108
(dp109
g16
(lp110
g18
ag100
asg20
g104
sg21
S'TwistedINETD'
p111
sg10
g102
sbasbsS'cred_file'
p112
g3
(g4
g5
NtRp113
(dp114
g8
S'twisted.plugins.cred_file'
p115
sg10
S"\nCred plugin for a file of the format 'username:password'.\n"
p116
sg11
(lp117
g3
(g13
g5
NtRp118
(dp119
g16
(lp120
g89
ag18
asg20
g113
sg21
S'theFileCheckerFactory'
p121
sg10
S'\n    A factory for instances of L{FilePasswordDB}.\n    '
p122
sbasbsS'twisted_ftp'
p123
g3
(g4
g5
NtRp124
(dp125
g8
S'twisted.plugins.twisted_ftp'
p126
sg10
Nsg11
(lp127
g3
(g13
g5
NtRp128
(dp129
g16
(lp130
g18
ag100
asg20
g124
sg21
S'TwistedFTP'
p131
sg10
g102
sbasbsS'twisted_telnet'
p132
g3
(g4
g5
NtRp133
(dp134
g8
S'twisted.plugins.twisted_telnet'
p135
sg10
Nsg11
(lp136
g3
(g13
g5
NtRp137
(dp138
g16
(lp139
g18
ag100
asg20
g133
sg21
S'TwistedTelnet'
p140
sg10
g102
sbasbsS'twisted_socks'
p141
g3
(g4
g5
NtRp142
(dp143
g8
S'twisted.plugins.twisted_socks'
p144
sg10
Nsg11
(lp145
g3
(g13
g5
NtRp146
(dp147
g16
(lp148
g18
ag100
asg20
g142
sg21
S'TwistedSOCKS'
p149
sg10
g102
sbasbsS'twisted_manhole'
p150
g3
(g4
g5
NtRp151
(dp152
g8
S'twisted.plugins.twisted_manhole'
p153
sg10
Nsg11
(lp154
g3
(g13
g5
NtRp155
(dp156
g16
(lp157
g18
ag100
asg20
g151
sg21
S'TwistedManhole'
p158
sg10
g102
sbasbsS'twisted_qtstub'
p159
g3
(g4
g5
NtRp160
(dp161
g8
S'twisted.plugins.twisted_qtstub'
p162
sg10
S'\nBackwards-compatibility plugin for the Qt reactor.\n\nThis provides a Qt reactor plugin named C{qt} which emits a deprecation\nwarning and a pointer to the separately distributed Qt reactor plugins.\n'
p163
sg11
(lp164
g3
(g13
g5
NtRp165
(dp166
g16
(lp167
g18
ag19
asg20
g160
sg21
S'qt'
p168
sg10
S'\n    Reactor plugin which emits a deprecation warning on the successful\n    installation of its reactor or a pointer to further information if an\n    ImportError occurs while attempting to install it.\n    '
p169
sbasbsS'cred_unix'
p170
g3
(g4
g5
NtRp171
(dp172
g8
S'twisted.plugins.cred_unix'
p173
sg10
S'\nCred plugin for UNIX user accounts.\n'
p174
sg11
(lp175
g3
(g13
g5
NtRp176
(dp177
g16
(lp178
g89
ag18
asg20
g171
sg21
S'theUnixCheckerFactory'
p179
sg10
S'\n    A factory for L{UNIXChecker}.\n    '
p180
sbasbsS'twisted_core'
p181
g3
(g4
g5
NtRp182
(dp183
g8
S'twisted.plugins.twisted_core'
p184
sg10
Nsg11
(lp185
g3
(g13
g5
NtRp186
(dp187
g16
(lp188
g18
actwisted.internet.interfaces
IStreamServerEndpointStringParser
p189
asg20
g182
sg21
S'tcp6ServerEndpointParser'
p190
sg10
S'\n    Stream server endpoint string parser for the TCP6ServerEndpoint type.\n\n    @ivar prefix: See L{IStreamClientEndpointStringParser.prefix}.\n    '
p191
sbag3
(g13
g5
NtRp192
(dp193
g16
(lp194
g18
ag189
asg20
g182
sg21
S'stdioEndpointParser'
p195
sg10
S'\n    Stream server endpoint string parser for the Standard I/O type.\n\n    @ivar prefix: See L{IStreamClientEndpointStringParser.prefix}.\n    '
p196
sbag3
(g13
g5
NtRp197
(dp198
g16
(lp199
g18
ag189
asg20
g182
sg21
S'systemdEndpointParser'
p200
sg10
S'\n    Stream server endpoint string parser for the I{systemd} endpoint type.\n\n    @ivar prefix: See L{IStreamClientEndpointStringParser.prefix}.\n\n    @ivar _sddaemon: A L{ListenFDs} instance used to translate an index into an\n        actual file descriptor.\n    '
p201
sbasbsS'twisted_trial'
p202
g3
(g4
g5
NtRp203
(dp204
g8
S'twisted.plugins.twisted_trial'
p205
sg10
Nsg11
(lp206
g3
(g13
g5
NtRp207
(dp208
g16
(lp209
g18
actwisted.trial.itrial
IReporter
p210
asg20
g203
sg21
S'Subunit'
p211
sg10
Nsbag3
(g13
g5
NtRp212
(dp213
g16
(lp214
g18
ag210
asg20
g203
sg21
S'BlackAndWhite'
p215
sg10
Nsbag3
(g13
g5
NtRp216
(dp217
g16
(lp218
g18
ag210
asg20
g203
sg21
S'Classic'
p219
sg10
Nsbag3
(g13
g5
NtRp220
(dp221
g16
(lp222
g18
ag210
asg20
g203
sg21
S'Tree'
p223
sg10
Nsbag3
(g13
g5
NtRp224
(dp225
g16
(lp226
g18
ag210
asg20
g203
sg21
S'Timing'
p227
sg10
Nsbag3
(g13
g5
NtRp228
(dp229
g16
(lp230
g18
ag210
asg20
g203
sg21
S'Minimal'
p231
sg10
NsbasbsS'cred_sshkeys'
p232
g3
(g4
g5
NtRp233
(dp234
g8
S'twisted.plugins.cred_sshkeys'
p235
sg10
S'\nCred plugin for ssh key login\n'
p236
sg11
(lp237
sbsS'twisted_portforward'
p238
g3
(g4
g5
NtRp239
(dp240
g8
S'twisted.plugins.twisted_portforward'
p241
sg10
Nsg11
(lp242
g3
(g13
g5
NtRp243
(dp244
g16
(lp245
g18
ag100
asg20
g239
sg21
S'TwistedPortForward'
p246
sg10
g102
sbasbsS'cred_anonymous'
p247
g3
(g4
g5
NtRp248
(dp249
g8
S'twisted.plugins.cred_anonymous'
p250
sg10
S'\nCred plugin for anonymous logins.\n'
p251
sg11
(lp252
g3
(g13
g5
NtRp253
(dp254
g16
(lp255
g89
ag18
asg20
g248
sg21
S'theAnonymousCheckerFactory'
p256
sg10
S'\n    Generates checkers that will authenticate an anonymous request.\n    '
p257
sbasbs.